(iAreaModule
Area
p0
(dp1
S'long_desc'
p2
S'You stand in the hot desert. There is not much of interest here.'
p3
sS'short_desc'
p4
S'There is a vast expanse of black land, as far as the eye can see.'
p5
sS'name'
p6
S'Black Wasteland'
p7
sS'exits'
p8
(dp9
S'west'
p10
NsS'east'
p11
S'Hall of Knowledge'
p12
sS'north'
p13
NsS'south'
p14
S'Majestic Center for Human Sacrifices'
p15
ssS'inside_desc'
p16
Nsb.